target datalayout = "e-m:e-p270:32:32-p271:32:32-p272:64:64-i64:64-i128:128-f80:128-n8:16:32:64-S128"
target triple = "x86_64-pc-linux-gnu"

; Function Attrs: inlinehint nounwind uwtable
define internal i32 @norm__(i64 noundef %0, i32 noundef %1) #3 {
  %3 = alloca i32, align 4
  %4 = alloca i64, align 8
  %5 = alloca i32, align 4
  store i64 %0, ptr %4, align 8, !tbaa !32
  store i32 %1, ptr %5, align 4, !tbaa !34
  %6 = load i32, ptr %5, align 4, !tbaa !34
  %7 = icmp sgt i32 %6, 0
  br i1 %7, label %8, label %19

8:                                                ; preds = %2
  %9 = load i64, ptr %4, align 8, !tbaa !32
  %10 = load i32, ptr %5, align 4, !tbaa !34
  %11 = sub nsw i32 %10, 1
  %12 = zext i32 %11 to i64
  %13 = shl i64 1, %12
  %14 = add nsw i64 %9, %13
  %15 = load i32, ptr %5, align 4, !tbaa !34
  %16 = zext i32 %15 to i64
  %17 = ashr i64 %14, %16
  %18 = trunc i64 %17 to i32
  store i32 %18, ptr %3, align 4
  br label %22

19:                                               ; preds = %2
  %20 = load i64, ptr %4, align 8, !tbaa !32
  %21 = trunc i64 %20 to i32
  store i32 %21, ptr %3, align 4
  br label %22

22:                                               ; preds = %19, %8
  %23 = load i32, ptr %3, align 4
  ret i32 %23
}

; Function Attrs: alwaysinline nounwind willreturn memory(none) uwtable
define internal i32 @av_clip_intp2_c(i32 noundef %0, i32 noundef %1) #4 {
  %3 = alloca i32, align 4
  %4 = alloca i32, align 4
  %5 = alloca i32, align 4
  store i32 %0, ptr %4, align 4, !tbaa !34
  store i32 %1, ptr %5, align 4, !tbaa !34
  %6 = load i32, ptr %4, align 4, !tbaa !34
  %7 = load i32, ptr %5, align 4, !tbaa !34
  %8 = shl i32 1, %7
  %9 = add i32 %6, %8
  %10 = load i32, ptr %5, align 4, !tbaa !34
  %11 = shl i32 2, %10
  %12 = sub i32 %11, 1
  %13 = xor i32 %12, -1
  %14 = and i32 %9, %13
  %15 = icmp ne i32 %14, 0
  br i1 %15, label %16, label %23

16:                                               ; preds = %2
  %17 = load i32, ptr %4, align 4, !tbaa !34
  %18 = ashr i32 %17, 31
  %19 = load i32, ptr %5, align 4, !tbaa !34
  %20 = shl i32 1, %19
  %21 = sub nsw i32 %20, 1
  %22 = xor i32 %18, %21
  store i32 %22, ptr %3, align 4
  br label %25

23:                                               ; preds = %2
  %24 = load i32, ptr %4, align 4, !tbaa !34
  store i32 %24, ptr %3, align 4
  br label %25

25:                                               ; preds = %23, %16
  %26 = load i32, ptr %3, align 4
  ret i32 %26
}

; Function Attrs: inlinehint nounwind uwtable
define internal i32 @mul__(i32 noundef %0, i32 noundef %1, i32 noundef %2) #3 {
  %4 = alloca i32, align 4
  %5 = alloca i32, align 4
  %6 = alloca i32, align 4
  store i32 %0, ptr %4, align 4, !tbaa !34
  store i32 %1, ptr %5, align 4, !tbaa !34
  store i32 %2, ptr %6, align 4, !tbaa !34
  %7 = load i32, ptr %4, align 4, !tbaa !34
  %8 = sext i32 %7 to i64
  %9 = load i32, ptr %5, align 4, !tbaa !34
  %10 = sext i32 %9 to i64
  %11 = mul nsw i64 %8, %10
  %12 = load i32, ptr %6, align 4, !tbaa !34
  %13 = call i32 @norm__(i64 noundef %11, i32 noundef %12)
  ret i32 %13
}

; Function Attrs: inlinehint nounwind uwtable
define internal i32 @clip23(i32 noundef %0) #3 {
  %2 = alloca i32, align 4
  store i32 %0, ptr %2, align 4, !tbaa !34
  %3 = load i32, ptr %2, align 4, !tbaa !34
  %4 = call i32 @av_clip_intp2_c(i32 noundef %3, i32 noundef 23) #8
  ret i32 %4
}

; Function Attrs: inlinehint nounwind uwtable
define internal i32 @mul17(i32 noundef %0, i32 noundef %1) #3 {
  %3 = alloca i32, align 4
  %4 = alloca i32, align 4
  store i32 %0, ptr %3, align 4, !tbaa !34
  store i32 %1, ptr %4, align 4, !tbaa !34
  %5 = load i32, ptr %3, align 4, !tbaa !34
  %6 = load i32, ptr %4, align 4, !tbaa !34
  %7 = call i32 @mul__(i32 noundef %5, i32 noundef %6, i32 noundef 17)
  ret i32 %7
}

; Function Attrs: nounwind uwtable
define internal void @decode_joint_c(ptr noundef %0, ptr noundef %1, ptr noundef %2, i64 noundef %3, i64 noundef %4, i64 noundef %5, i64 noundef %6) #1 {
  %8 = alloca ptr, align 8
  %9 = alloca ptr, align 8
  %10 = alloca ptr, align 8
  %11 = alloca i64, align 8
  %12 = alloca i64, align 8
  %13 = alloca i64, align 8
  %14 = alloca i64, align 8
  %15 = alloca i32, align 4
  %16 = alloca i32, align 4
  %17 = alloca i32, align 4
  store ptr %0, ptr %8, align 8, !tbaa !25
  store ptr %1, ptr %9, align 8, !tbaa !25
  store ptr %2, ptr %10, align 8, !tbaa !28
  store i64 %3, ptr %11, align 8, !tbaa !32
  store i64 %4, ptr %12, align 8, !tbaa !32
  store i64 %5, ptr %13, align 8, !tbaa !32
  store i64 %6, ptr %14, align 8, !tbaa !32
  call void @llvm.lifetime.start.p0(i64 4, ptr %15) #7
  call void @llvm.lifetime.start.p0(i64 4, ptr %16) #7
  %18 = load i64, ptr %11, align 8, !tbaa !32
  %19 = trunc i64 %18 to i32
  store i32 %19, ptr %15, align 4, !tbaa !34
  br label %20

20:                                               ; preds = %65, %7
  %21 = load i32, ptr %15, align 4, !tbaa !34
  %22 = sext i32 %21 to i64
  %23 = load i64, ptr %12, align 8, !tbaa !32
  %24 = icmp slt i64 %22, %23
  br i1 %24, label %25, label %68

25:                                               ; preds = %20
  call void @llvm.lifetime.start.p0(i64 4, ptr %17) #7
  %26 = load ptr, ptr %10, align 8, !tbaa !28
  %27 = load i32, ptr %15, align 4, !tbaa !34
  %28 = sext i32 %27 to i64
  %29 = getelementptr inbounds i32, ptr %26, i64 %28
  %30 = load i32, ptr %29, align 4, !tbaa !34
  store i32 %30, ptr %17, align 4, !tbaa !34
  store i32 0, ptr %16, align 4, !tbaa !34
  br label %31

31:                                               ; preds = %61, %25
  %32 = load i32, ptr %16, align 4, !tbaa !34
  %33 = sext i32 %32 to i64
  %34 = load i64, ptr %14, align 8, !tbaa !32
  %35 = icmp slt i64 %33, %34
  br i1 %35, label %36, label %64

36:                                               ; preds = %31
  %37 = load ptr, ptr %9, align 8, !tbaa !25
  %38 = load i32, ptr %15, align 4, !tbaa !34
  %39 = sext i32 %38 to i64
  %40 = getelementptr inbounds ptr, ptr %37, i64 %39
  %41 = load ptr, ptr %40, align 8, !tbaa !28
  %42 = load i32, ptr %16, align 4, !tbaa !34
  %43 = sext i32 %42 to i64
  %44 = load i64, ptr %13, align 8, !tbaa !32
  %45 = add nsw i64 %43, %44
  %46 = getelementptr inbounds i32, ptr %41, i64 %45
  %47 = load i32, ptr %46, align 4, !tbaa !34
  %48 = load i32, ptr %17, align 4, !tbaa !34
  %49 = call i32 @mul17(i32 noundef %47, i32 noundef %48)
  %50 = call i32 @clip23(i32 noundef %49)
  %51 = load ptr, ptr %8, align 8, !tbaa !25
  %52 = load i32, ptr %15, align 4, !tbaa !34
  %53 = sext i32 %52 to i64
  %54 = getelementptr inbounds ptr, ptr %51, i64 %53
  %55 = load ptr, ptr %54, align 8, !tbaa !28
  %56 = load i32, ptr %16, align 4, !tbaa !34
  %57 = sext i32 %56 to i64
  %58 = load i64, ptr %13, align 8, !tbaa !32
  %59 = add nsw i64 %57, %58
  %60 = getelementptr inbounds i32, ptr %55, i64 %59
  store i32 %50, ptr %60, align 4, !tbaa !34
  br label %61

61:                                               ; preds = %36
  %62 = load i32, ptr %16, align 4, !tbaa !34
  %63 = add nsw i32 %62, 1
  store i32 %63, ptr %16, align 4, !tbaa !34
  br label %31, !llvm.loop !40

64:                                               ; preds = %31
  call void @llvm.lifetime.end.p0(i64 4, ptr %17) #7
  br label %65

65:                                               ; preds = %64
  %66 = load i32, ptr %15, align 4, !tbaa !34
  %67 = add nsw i32 %66, 1
  store i32 %67, ptr %15, align 4, !tbaa !34
  br label %20, !llvm.loop !41

68:                                               ; preds = %20
  call void @llvm.lifetime.end.p0(i64 4, ptr %16) #7
  call void @llvm.lifetime.end.p0(i64 4, ptr %15) #7
  ret void
}