; Function Attrs: nofree norecurse nosync nounwind memory(readwrite, inaccessiblemem: none) uwtable
define internal void @decode_joint_c(ptr noundef readonly captures(none) %0, ptr noundef readonly captures(none) %1, ptr noundef readonly captures(none) %2, i64 noundef %3, i64 noundef %4, i64 noundef %5, i64 noundef %6) #2 {
  %sext = shl i64 %3, 32
  %8 = ashr exact i64 %sext, 32
  %9 = icmp sgt i64 %4, %8
  %10 = icmp sgt i64 %6, 0
  %or.cond = and i1 %9, %10
  br i1 %or.cond, label %.lr.ph.us, label %._crit_edge24

.lr.ph.us:                                        ; preds = %7, %._crit_edge.us
  %indvars.iv28 = phi i64 [ %indvars.iv.next29, %._crit_edge.us ], [ %8, %7 ]
  %11 = getelementptr inbounds i32, ptr %2, i64 %indvars.iv28
  %12 = load i32, ptr %11, align 4, !tbaa !23
  %13 = getelementptr inbounds ptr, ptr %1, i64 %indvars.iv28
  %14 = load ptr, ptr %13, align 8, !tbaa !25
  %15 = sext i32 %12 to i64
  %16 = getelementptr inbounds ptr, ptr %0, i64 %indvars.iv28
  %17 = load ptr, ptr %16, align 8, !tbaa !25
  br label %18

18:                                               ; preds = %.lr.ph.us, %18
  %indvars.iv = phi i64 [ 0, %.lr.ph.us ], [ %indvars.iv.next, %18 ]
  %19 = add nsw i64 %indvars.iv, %5
  %20 = getelementptr inbounds i32, ptr %14, i64 %19
  %21 = load i32, ptr %20, align 4, !tbaa !23
  %22 = sext i32 %21 to i64
  %23 = mul nsw i64 %22, %15
  %24 = add nsw i64 %23, 65536
  %25 = lshr i64 %24, 17
  %26 = trunc i64 %25 to i32
  %27 = tail call i32 @llvm.smax.i32(i32 %26, i32 -8388608)
  %.0.i.i.us = tail call range(i32 -8388608, 8388608) i32 @llvm.smin.i32(i32 %27, i32 8388607)
  %28 = getelementptr inbounds i32, ptr %17, i64 %19
  store i32 %.0.i.i.us, ptr %28, align 4, !tbaa !23
  %indvars.iv.next = add nuw nsw i64 %indvars.iv, 1
  %exitcond.not = icmp eq i64 %indvars.iv.next, %6
  br i1 %exitcond.not, label %._crit_edge.us, label %18, !llvm.loop !31

._crit_edge.us:                                   ; preds = %18
  %indvars.iv.next29 = add nsw i64 %indvars.iv28, 1
  %29 = icmp sgt i64 %4, %indvars.iv.next29
  br i1 %29, label %.lr.ph.us, label %._crit_edge24, !llvm.loop !32

._crit_edge24:                                    ; preds = %._crit_edge.us, %7
  ret void
}